; ModuleID = '22/166.c'
source_filename = "22/166.c"
target datalayout = "e-m:e-p270:32:32-p271:32:32-p272:64:64-i64:64-f80:128-n8:16:32:64-S128"
target triple = "x86_64-pc-linux-gnu"

@.str = private unnamed_addr constant [3 x i8] c"%d\00", align 1
@.str.1 = private unnamed_addr constant [3 x i8] c"No\00", align 1

; Function Attrs: noinline nounwind uwtable
define dso_local void @main() #0 {
  %1 = alloca i32, align 4
  %2 = alloca i32, align 4
  %3 = alloca i32, align 4
  %4 = alloca i32, align 4
  %5 = alloca [300 x i32], align 16
  store i32 0, i32* %4, align 4
  br label %6

6:                                                ; preds = %13, %0
  %7 = load i32, i32* %4, align 4
  %8 = sext i32 %7 to i64
  %9 = getelementptr inbounds [300 x i32], [300 x i32]* %5, i64 0, i64 %8
  %10 = call i32 (i8*, ...) @__isoc99_scanf(i8* getelementptr inbounds ([3 x i8], [3 x i8]* @.str, i64 0, i64 0), i32* %9)
  %11 = load i32, i32* %4, align 4
  %12 = add nsw i32 %11, 1
  store i32 %12, i32* %4, align 4
  br label %13

13:                                               ; preds = %6
  %14 = call i32 @getchar()
  %15 = icmp ne i32 %14, 10
  br i1 %15, label %6, label %16

16:                                               ; preds = %13
  %17 = load i32, i32* %4, align 4
  %18 = icmp ne i32 %17, 1
  br i1 %18, label %19, label %108

19:                                               ; preds = %16
  store i32 0, i32* %1, align 4
  br label %20

20:                                               ; preds = %66, %19
  %21 = load i32, i32* %1, align 4
  %22 = load i32, i32* %4, align 4
  %23 = icmp slt i32 %21, %22
  br i1 %23, label %24, label %69

24:                                               ; preds = %20
  store i32 0, i32* %2, align 4
  br label %25

25:                                               ; preds = %62, %24
  %26 = load i32, i32* %2, align 4
  %27 = load i32, i32* %4, align 4
  %28 = load i32, i32* %1, align 4
  %29 = sub nsw i32 %27, %28
  %30 = sub nsw i32 %29, 1
  %31 = icmp slt i32 %26, %30
  br i1 %31, label %32, label %65

32:                                               ; preds = %25
  %33 = load i32, i32* %2, align 4
  %34 = sext i32 %33 to i64
  %35 = getelementptr inbounds [300 x i32], [300 x i32]* %5, i64 0, i64 %34
  %36 = load i32, i32* %35, align 4
  %37 = load i32, i32* %2, align 4
  %38 = add nsw i32 %37, 1
  %39 = sext i32 %38 to i64
  %40 = getelementptr inbounds [300 x i32], [300 x i32]* %5, i64 0, i64 %39
  %41 = load i32, i32* %40, align 4
  %42 = icmp sgt i32 %36, %41
  br i1 %42, label %43, label %61

43:                                               ; preds = %32
  %44 = load i32, i32* %2, align 4
  %45 = sext i32 %44 to i64
  %46 = getelementptr inbounds [300 x i32], [300 x i32]* %5, i64 0, i64 %45
  %47 = load i32, i32* %46, align 4
  store i32 %47, i32* %3, align 4
  %48 = load i32, i32* %2, align 4
  %49 = add nsw i32 %48, 1
  %50 = sext i32 %49 to i64
  %51 = getelementptr inbounds [300 x i32], [300 x i32]* %5, i64 0, i64 %50
  %52 = load i32, i32* %51, align 4
  %53 = load i32, i32* %2, align 4
  %54 = sext i32 %53 to i64
  %55 = getelementptr inbounds [300 x i32], [300 x i32]* %5, i64 0, i64 %54
  store i32 %52, i32* %55, align 4
  %56 = load i32, i32* %3, align 4
  %57 = load i32, i32* %2, align 4
  %58 = add nsw i32 %57, 1
  %59 = sext i32 %58 to i64
  %60 = getelementptr inbounds [300 x i32], [300 x i32]* %5, i64 0, i64 %59
  store i32 %56, i32* %60, align 4
  br label %61

61:                                               ; preds = %43, %32
  br label %62

62:                                               ; preds = %61
  %63 = load i32, i32* %2, align 4
  %64 = add nsw i32 %63, 1
  store i32 %64, i32* %2, align 4
  br label %25

65:                                               ; preds = %25
  br label %66

66:                                               ; preds = %65
  %67 = load i32, i32* %1, align 4
  %68 = add nsw i32 %67, 1
  store i32 %68, i32* %1, align 4
  br label %20

69:                                               ; preds = %20
  %70 = getelementptr inbounds [300 x i32], [300 x i32]* %5, i64 0, i64 0
  %71 = load i32, i32* %70, align 16
  %72 = load i32, i32* %4, align 4
  %73 = sub nsw i32 %72, 1
  %74 = sext i32 %73 to i64
  %75 = getelementptr inbounds [300 x i32], [300 x i32]* %5, i64 0, i64 %74
  %76 = load i32, i32* %75, align 4
  %77 = icmp eq i32 %71, %76
  br i1 %77, label %78, label %80

78:                                               ; preds = %69
  %79 = call i32 (i8*, ...) @printf(i8* getelementptr inbounds ([3 x i8], [3 x i8]* @.str.1, i64 0, i64 0))
  br label %80

80:                                               ; preds = %78, %69
  %81 = load i32, i32* %4, align 4
  %82 = sub nsw i32 %81, 1
  store i32 %82, i32* %1, align 4
  br label %83

83:                                               ; preds = %104, %80
  %84 = load i32, i32* %1, align 4
  %85 = icmp sge i32 %84, 0
  br i1 %85, label %86, label %107

86:                                               ; preds = %83
  %87 = load i32, i32* %1, align 4
  %88 = sext i32 %87 to i64
  %89 = getelementptr inbounds [300 x i32], [300 x i32]* %5, i64 0, i64 %88
  %90 = load i32, i32* %89, align 4
  %91 = load i32, i32* %4, align 4
  %92 = sub nsw i32 %91, 1
  %93 = sext i32 %92 to i64
  %94 = getelementptr inbounds [300 x i32], [300 x i32]* %5, i64 0, i64 %93
  %95 = load i32, i32* %94, align 4
  %96 = icmp ne i32 %90, %95
  br i1 %96, label %97, label %103

97:                                               ; preds = %86
  %98 = load i32, i32* %1, align 4
  %99 = sext i32 %98 to i64
  %100 = getelementptr inbounds [300 x i32], [300 x i32]* %5, i64 0, i64 %99
  %101 = load i32, i32* %100, align 4
  %102 = call i32 (i8*, ...) @printf(i8* getelementptr inbounds ([3 x i8], [3 x i8]* @.str, i64 0, i64 0), i32 %101)
  br label %107

103:                                              ; preds = %86
  br label %104

104:                                              ; preds = %103
  %105 = load i32, i32* %1, align 4
  %106 = add nsw i32 %105, -1
  store i32 %106, i32* %1, align 4
  br label %83

107:                                              ; preds = %97, %83
  br label %110

108:                                              ; preds = %16
  %109 = call i32 (i8*, ...) @printf(i8* getelementptr inbounds ([3 x i8], [3 x i8]* @.str.1, i64 0, i64 0))
  br label %110

110:                                              ; preds = %108, %107
  ret void
}

declare dso_local i32 @__isoc99_scanf(i8*, ...) #1

declare dso_local i32 @getchar() #1

declare dso_local i32 @printf(i8*, ...) #1


!llvm.module.flags = !{!0}
!llvm.ident = !{!1}

!0 = !{i32 1, !"wchar_size", i32 4}
!1 = !{!"clang version 10.0.0-4ubuntu1 "}
